target datalayout = "e-m:e-p270:32:32-p271:32:32-p272:64:64-i64:64-i128:128-f80:128-n8:16:32:64-S128"
target triple = "x86_64-pc-linux-gnu"

%struct.lua_State = type { %struct.GCRef, i8, i8, i8, i8, %struct.MRef, %struct.GCRef, ptr, ptr, %struct.MRef, %struct.MRef, %struct.GCRef, %struct.GCRef, ptr, i32 }
%struct.MRef = type { i64 }
%struct.GCRef = type { i64 }
%struct.global_State = type { ptr, ptr, %struct.GCState, %struct.GCstr, i8, i8, i8, i8, %struct.StrInternState, i32, %struct.GCRef, %struct.SBuf, %union.TValue, %union.TValue, %struct.Node, %union.TValue, %struct.GCupval, i32, i32, ptr, ptr, ptr, i32, i32, %struct.GCRef, %struct.MRef, %struct.MRef, %struct.PRNGState, [39 x %struct.GCRef] }
%struct.GCState = type { i64, i64, i8, i8, i8, i8, i32, %struct.GCRef, %struct.MRef, %struct.GCRef, %struct.GCRef, %struct.GCRef, %struct.GCRef, i64, i64, i32, i32, %struct.MRef }
%struct.GCstr = type { %struct.GCRef, i8, i8, i8, i8, i32, i32, i32 }
%struct.StrInternState = type { ptr, i32, i32, i32, i8, i8, i8, i8, i64 }
%struct.SBuf = type { ptr, ptr, ptr, %struct.MRef }
%struct.Node = type { %union.TValue, %union.TValue, %struct.MRef }
%union.TValue = type { i64 }
%struct.GCupval = type { %struct.GCRef, i8, i8, i8, i8, %union.anon, %struct.MRef, i32 }
%union.anon = type { %struct.anon.1 }
%struct.anon.1 = type { %struct.GCRef, %struct.GCRef }
%struct.PRNGState = type { [4 x i64] }
%struct.CTState = type { ptr, i32, i32, ptr, ptr, ptr, %struct.CCallback, [128 x i16] }
%struct.CCallback = type { [8 x %union.FPRCBArg], [8 x i64], ptr, ptr, ptr, i32, i32, i32 }
%union.FPRCBArg = type { double }
%struct.GCcdata = type { %struct.GCRef, i8, i8, i16 }
%struct.CType = type { i32, i32, i16, i16, %struct.GCRef }
%struct.anon.0 = type { i32, i32 }

; Function Attrs: alwaysinline nounwind uwtable
define internal i32 @ctype_check(ptr noundef %0, i32 noundef %1) #2 {
  %3 = alloca ptr, align 8
  %4 = alloca i32, align 4
  store ptr %0, ptr %3, align 8, !tbaa !11
  store i32 %1, ptr %4, align 4, !tbaa !9
  %5 = load i32, ptr %4, align 4, !tbaa !9
  ret i32 %5
}

; Function Attrs: alwaysinline nounwind uwtable
define internal i32 @lj_num2bit(double noundef %0) #2 {
  %2 = alloca double, align 8
  %3 = alloca %union.TValue, align 8
  store double %0, ptr %2, align 8, !tbaa !67
  call void @llvm.lifetime.start.p0(i64 8, ptr %3) #7
  %4 = load double, ptr %2, align 8, !tbaa !67
  %5 = fadd double %4, 0x4338000000000000
  store double %5, ptr %3, align 8, !tbaa !43
  %6 = getelementptr inbounds nuw %struct.anon.0, ptr %3, i32 0, i32 0
  %7 = load i32, ptr %6, align 8, !tbaa !43
  call void @llvm.lifetime.end.p0(i64 8, ptr %3) #7
  ret i32 %7
}

; Function Attrs: alwaysinline nounwind uwtable
define internal ptr @ctype_child(ptr noundef %0, ptr noundef %1) #2 {
  %3 = alloca ptr, align 8
  %4 = alloca ptr, align 8
  store ptr %0, ptr %3, align 8, !tbaa !11
  store ptr %1, ptr %4, align 8, !tbaa !49
  %5 = load ptr, ptr %3, align 8, !tbaa !11
  %6 = load ptr, ptr %4, align 8, !tbaa !49
  %7 = getelementptr inbounds nuw %struct.CType, ptr %6, i32 0, i32 0
  %8 = load i32, ptr %7, align 8, !tbaa !51
  %9 = and i32 %8, 65535
  %10 = call ptr @ctype_get(ptr noundef %5, i32 noundef %9)
  ret ptr %10
}

; Function Attrs: alwaysinline nounwind uwtable
define internal ptr @ctype_raw(ptr noundef %0, i32 noundef %1) #2 {
  %3 = alloca ptr, align 8
  %4 = alloca i32, align 4
  %5 = alloca ptr, align 8
  store ptr %0, ptr %3, align 8, !tbaa !11
  store i32 %1, ptr %4, align 4, !tbaa !9
  call void @llvm.lifetime.start.p0(i64 8, ptr %5) #7
  %6 = load ptr, ptr %3, align 8, !tbaa !11
  %7 = load i32, ptr %4, align 4, !tbaa !9
  %8 = call ptr @ctype_get(ptr noundef %6, i32 noundef %7)
  store ptr %8, ptr %5, align 8, !tbaa !49
  br label %9

9:                                                ; preds = %15, %2
  %10 = load ptr, ptr %5, align 8, !tbaa !49
  %11 = getelementptr inbounds nuw %struct.CType, ptr %10, i32 0, i32 0
  %12 = load i32, ptr %11, align 8, !tbaa !51
  %13 = lshr i32 %12, 28
  %14 = icmp eq i32 %13, 8
  br i1 %14, label %15, label %19

15:                                               ; preds = %9
  %16 = load ptr, ptr %3, align 8, !tbaa !11
  %17 = load ptr, ptr %5, align 8, !tbaa !49
  %18 = call ptr @ctype_child(ptr noundef %16, ptr noundef %17)
  store ptr %18, ptr %5, align 8, !tbaa !49
  br label %9, !llvm.loop !66

19:                                               ; preds = %9
  %20 = load ptr, ptr %5, align 8, !tbaa !49
  call void @llvm.lifetime.end.p0(i64 8, ptr %5) #7
  ret ptr %20
}

; Function Attrs: alwaysinline nounwind uwtable
define internal ptr @ctype_get(ptr noundef %0, i32 noundef %1) #2 {
  %3 = alloca ptr, align 8
  %4 = alloca i32, align 4
  store ptr %0, ptr %3, align 8, !tbaa !11
  store i32 %1, ptr %4, align 4, !tbaa !9
  %5 = load ptr, ptr %3, align 8, !tbaa !11
  %6 = getelementptr inbounds nuw %struct.CTState, ptr %5, i32 0, i32 0
  %7 = load ptr, ptr %6, align 8, !tbaa !54
  %8 = load ptr, ptr %3, align 8, !tbaa !11
  %9 = load i32, ptr %4, align 4, !tbaa !9
  %10 = call i32 @ctype_check(ptr noundef %8, i32 noundef %9)
  %11 = zext i32 %10 to i64
  %12 = getelementptr inbounds nuw %struct.CType, ptr %7, i64 %11
  ret ptr %12
}

; Function Attrs: alwaysinline nounwind uwtable
define internal ptr @ctype_cts(ptr noundef %0) #2 {
  %2 = alloca ptr, align 8
  %3 = alloca ptr, align 8
  store ptr %0, ptr %2, align 8, !tbaa !4
  call void @llvm.lifetime.start.p0(i64 8, ptr %3) #7
  %4 = load ptr, ptr %2, align 8, !tbaa !4
  %5 = getelementptr inbounds nuw %struct.lua_State, ptr %4, i32 0, i32 5
  %6 = getelementptr inbounds nuw %struct.MRef, ptr %5, i32 0, i32 0
  %7 = load i64, ptr %6, align 8, !tbaa !13
  %8 = inttoptr i64 %7 to ptr
  %9 = getelementptr inbounds nuw %struct.global_State, ptr %8, i32 0, i32 26
  %10 = getelementptr inbounds nuw %struct.MRef, ptr %9, i32 0, i32 0
  %11 = load i64, ptr %10, align 8, !tbaa !20
  %12 = inttoptr i64 %11 to ptr
  store ptr %12, ptr %3, align 8, !tbaa !11
  %13 = load ptr, ptr %2, align 8, !tbaa !4
  %14 = load ptr, ptr %3, align 8, !tbaa !11
  %15 = getelementptr inbounds nuw %struct.CTState, ptr %14, i32 0, i32 3
  store ptr %13, ptr %15, align 8, !tbaa !31
  %16 = load ptr, ptr %3, align 8, !tbaa !11
  call void @llvm.lifetime.end.p0(i64 8, ptr %3) #7
  ret ptr %16
}

; Function Attrs: nounwind uwtable
define hidden i64 @lj_carith_check64(ptr noundef %0, i32 noundef %1, ptr noundef %2) #0 {
  %4 = alloca i64, align 8
  %5 = alloca ptr, align 8
  %6 = alloca i32, align 4
  %7 = alloca ptr, align 8
  %8 = alloca ptr, align 8
  %9 = alloca ptr, align 8
  %10 = alloca ptr, align 8
  %11 = alloca i32, align 4
  %12 = alloca ptr, align 8
  %13 = alloca i64, align 8
  %14 = alloca i32, align 4
  store ptr %0, ptr %5, align 8, !tbaa !4
  store i32 %1, ptr %6, align 4, !tbaa !9
  store ptr %2, ptr %7, align 8, !tbaa !64
  call void @llvm.lifetime.start.p0(i64 8, ptr %8) #7
  %15 = load ptr, ptr %5, align 8, !tbaa !4
  %16 = getelementptr inbounds nuw %struct.lua_State, ptr %15, i32 0, i32 7
  %17 = load ptr, ptr %16, align 8, !tbaa !41
  %18 = load i32, ptr %6, align 4, !tbaa !9
  %19 = sext i32 %18 to i64
  %20 = getelementptr inbounds %union.TValue, ptr %17, i64 %19
  %21 = getelementptr inbounds %union.TValue, ptr %20, i64 -1
  store ptr %21, ptr %8, align 8, !tbaa !42
  %22 = load ptr, ptr %8, align 8, !tbaa !42
  %23 = load ptr, ptr %5, align 8, !tbaa !4
  %24 = getelementptr inbounds nuw %struct.lua_State, ptr %23, i32 0, i32 8
  %25 = load ptr, ptr %24, align 8, !tbaa !19
  %26 = icmp uge ptr %22, %25
  br i1 %26, label %27, label %31

27:                                               ; preds = %3
  br label %28

28:                                               ; preds = %141, %27
  %29 = load ptr, ptr %5, align 8, !tbaa !4
  %30 = load i32, ptr %6, align 4, !tbaa !9
  call void @lj_err_argt(ptr noundef %29, i32 noundef %30, i32 noundef 3) #8
  unreachable

31:                                               ; preds = %3
  %32 = load ptr, ptr %8, align 8, !tbaa !42
  %33 = load i64, ptr %32, align 8, !tbaa !43
  %34 = ashr i64 %33, 47
  %35 = trunc i64 %34 to i32
  %36 = icmp ule i32 %35, -14
  %37 = xor i1 %36, true
  %38 = xor i1 %37, true
  %39 = zext i1 %38 to i32
  %40 = sext i32 %39 to i64
  %41 = call i64 @llvm.expect.i64(i64 %40, i64 1)
  %42 = icmp ne i64 %41, 0
  br i1 %42, label %43, label %44

43:                                               ; preds = %31
  br label %144

44:                                               ; preds = %31
  %45 = load ptr, ptr %8, align 8, !tbaa !42
  %46 = load i64, ptr %45, align 8, !tbaa !43
  %47 = ashr i64 %46, 47
  %48 = trunc i64 %47 to i32
  %49 = icmp eq i32 %48, -11
  br i1 %49, label %50, label %126

50:                                               ; preds = %44
  call void @llvm.lifetime.start.p0(i64 8, ptr %9) #7
  %51 = load ptr, ptr %5, align 8, !tbaa !4
  %52 = call ptr @ctype_cts(ptr noundef %51)
  store ptr %52, ptr %9, align 8, !tbaa !11
  call void @llvm.lifetime.start.p0(i64 8, ptr %10) #7
  %53 = load ptr, ptr %8, align 8, !tbaa !42
  %54 = getelementptr inbounds nuw %struct.GCRef, ptr %53, i32 0, i32 0
  %55 = load i64, ptr %54, align 8, !tbaa !43
  %56 = and i64 %55, 140737488355327
  %57 = inttoptr i64 %56 to ptr
  %58 = getelementptr inbounds %struct.GCcdata, ptr %57, i64 1
  store ptr %58, ptr %10, align 8, !tbaa !50
  call void @llvm.lifetime.start.p0(i64 4, ptr %11) #7
  %59 = load ptr, ptr %8, align 8, !tbaa !42
  %60 = getelementptr inbounds nuw %struct.GCRef, ptr %59, i32 0, i32 0
  %61 = load i64, ptr %60, align 8, !tbaa !43
  %62 = and i64 %61, 140737488355327
  %63 = inttoptr i64 %62 to ptr
  %64 = getelementptr inbounds nuw %struct.GCcdata, ptr %63, i32 0, i32 3
  %65 = load i16, ptr %64, align 2, !tbaa !43
  %66 = zext i16 %65 to i32
  store i32 %66, ptr %11, align 4, !tbaa !9
  call void @llvm.lifetime.start.p0(i64 8, ptr %12) #7
  %67 = load ptr, ptr %9, align 8, !tbaa !11
  %68 = load i32, ptr %11, align 4, !tbaa !9
  %69 = call ptr @ctype_get(ptr noundef %67, i32 noundef %68)
  store ptr %69, ptr %12, align 8, !tbaa !49
  call void @llvm.lifetime.start.p0(i64 8, ptr %13) #7
  %70 = load ptr, ptr %12, align 8, !tbaa !49
  %71 = getelementptr inbounds nuw %struct.CType, ptr %70, i32 0, i32 0
  %72 = load i32, ptr %71, align 8, !tbaa !51
  %73 = and i32 %72, -260046848
  %74 = icmp eq i32 %73, 545259520
  br i1 %74, label %75, label %82

75:                                               ; preds = %50
  %76 = load ptr, ptr %10, align 8, !tbaa !50
  %77 = load ptr, ptr %76, align 8, !tbaa !55
  store ptr %77, ptr %10, align 8, !tbaa !50
  %78 = load ptr, ptr %12, align 8, !tbaa !49
  %79 = getelementptr inbounds nuw %struct.CType, ptr %78, i32 0, i32 0
  %80 = load i32, ptr %79, align 8, !tbaa !51
  %81 = and i32 %80, 65535
  store i32 %81, ptr %11, align 4, !tbaa !9
  br label %82

82:                                               ; preds = %75, %50
  %83 = load ptr, ptr %9, align 8, !tbaa !11
  %84 = load i32, ptr %11, align 4, !tbaa !9
  %85 = call ptr @ctype_raw(ptr noundef %83, i32 noundef %84)
  store ptr %85, ptr %12, align 8, !tbaa !49
  %86 = load ptr, ptr %12, align 8, !tbaa !49
  %87 = getelementptr inbounds nuw %struct.CType, ptr %86, i32 0, i32 0
  %88 = load i32, ptr %87, align 8, !tbaa !51
  %89 = lshr i32 %88, 28
  %90 = icmp eq i32 %89, 5
  br i1 %90, label %91, label %95

91:                                               ; preds = %82
  %92 = load ptr, ptr %9, align 8, !tbaa !11
  %93 = load ptr, ptr %12, align 8, !tbaa !49
  %94 = call ptr @ctype_child(ptr noundef %92, ptr noundef %93)
  store ptr %94, ptr %12, align 8, !tbaa !49
  br label %95

95:                                               ; preds = %91, %82
  %96 = load ptr, ptr %12, align 8, !tbaa !49
  %97 = getelementptr inbounds nuw %struct.CType, ptr %96, i32 0, i32 0
  %98 = load i32, ptr %97, align 8, !tbaa !51
  %99 = and i32 %98, -58720256
  %100 = icmp eq i32 %99, 8388608
  br i1 %100, label %101, label %108

101:                                              ; preds = %95
  %102 = load ptr, ptr %12, align 8, !tbaa !49
  %103 = getelementptr inbounds nuw %struct.CType, ptr %102, i32 0, i32 1
  %104 = load i32, ptr %103, align 4, !tbaa !53
  %105 = icmp eq i32 %104, 8
  br i1 %105, label %106, label %108

106:                                              ; preds = %101
  %107 = load ptr, ptr %7, align 8, !tbaa !64
  store i32 12, ptr %107, align 4, !tbaa !9
  br label %115

108:                                              ; preds = %101, %95
  %109 = load ptr, ptr %7, align 8, !tbaa !64
  %110 = load i32, ptr %109, align 4, !tbaa !9
  %111 = icmp ne i32 %110, 0
  br i1 %111, label %114, label %112

112:                                              ; preds = %108
  %113 = load ptr, ptr %7, align 8, !tbaa !64
  store i32 11, ptr %113, align 4, !tbaa !9
  br label %114

114:                                              ; preds = %112, %108
  br label %115

115:                                              ; preds = %114, %106
  %116 = load ptr, ptr %9, align 8, !tbaa !11
  %117 = load ptr, ptr %9, align 8, !tbaa !11
  %118 = load ptr, ptr %7, align 8, !tbaa !64
  %119 = load i32, ptr %118, align 4, !tbaa !9
  %120 = call ptr @ctype_get(ptr noundef %117, i32 noundef %119)
  %121 = load ptr, ptr %12, align 8, !tbaa !49
  %122 = load ptr, ptr %10, align 8, !tbaa !50
  %123 = load i32, ptr %6, align 4, !tbaa !9
  %124 = shl i32 %123, 8
  call void @lj_cconv_ct_ct(ptr noundef %116, ptr noundef %120, ptr noundef %121, ptr noundef %13, ptr noundef %122, i32 noundef %124)
  %125 = load i64, ptr %13, align 8, !tbaa !58
  store i64 %125, ptr %4, align 8
  store i32 1, ptr %14, align 4
  call void @llvm.lifetime.end.p0(i64 8, ptr %13) #7
  call void @llvm.lifetime.end.p0(i64 8, ptr %12) #7
  call void @llvm.lifetime.end.p0(i64 4, ptr %11) #7
  call void @llvm.lifetime.end.p0(i64 8, ptr %10) #7
  call void @llvm.lifetime.end.p0(i64 8, ptr %9) #7
  br label %150

126:                                              ; preds = %44
  %127 = load ptr, ptr %8, align 8, !tbaa !42
  %128 = load i64, ptr %127, align 8, !tbaa !43
  %129 = ashr i64 %128, 47
  %130 = trunc i64 %129 to i32
  %131 = icmp eq i32 %130, -5
  br i1 %131, label %132, label %141

132:                                              ; preds = %126
  %133 = load ptr, ptr %8, align 8, !tbaa !42
  %134 = getelementptr inbounds nuw %struct.GCRef, ptr %133, i32 0, i32 0
  %135 = load i64, ptr %134, align 8, !tbaa !43
  %136 = and i64 %135, 140737488355327
  %137 = inttoptr i64 %136 to ptr
  %138 = load ptr, ptr %8, align 8, !tbaa !42
  %139 = call i32 @lj_strscan_num(ptr noundef %137, ptr noundef %138)
  %140 = icmp ne i32 %139, 0
  br i1 %140, label %142, label %141

141:                                              ; preds = %132, %126
  br label %28

142:                                              ; preds = %132
  br label %143

143:                                              ; preds = %142
  br label %144

144:                                              ; preds = %143, %43
  br label %145

145:                                              ; preds = %144
  %146 = load ptr, ptr %8, align 8, !tbaa !42
  %147 = load double, ptr %146, align 8, !tbaa !43
  %148 = call i32 @lj_num2bit(double noundef %147)
  %149 = zext i32 %148 to i64
  store i64 %149, ptr %4, align 8
  store i32 1, ptr %14, align 4
  br label %150

150:                                              ; preds = %145, %115
  call void @llvm.lifetime.end.p0(i64 8, ptr %8) #7
  %151 = load i64, ptr %4, align 8
  ret i64 %151
}