; Function Attrs: nounwind uwtable
define hidden i64 @lj_carith_check64(ptr noundef %0, i32 noundef %1, ptr noundef captures(none) %2) local_unnamed_addr #0 {
  %4 = alloca i64, align 8
  %5 = getelementptr inbounds nuw i8, ptr %0, i64 32
  %6 = load ptr, ptr %5, align 8, !tbaa !34
  %7 = sext i32 %1 to i64
  %8 = getelementptr inbounds %union.TValue, ptr %6, i64 %7
  %9 = getelementptr inbounds i8, ptr %8, i64 -8
  %10 = getelementptr inbounds nuw i8, ptr %0, i64 40
  %11 = load ptr, ptr %10, align 8, !tbaa !35
  %.not = icmp ult ptr %9, %11
  br i1 %.not, label %13, label %12

12:                                               ; preds = %18, %66, %3
  tail call void @lj_err_argt(ptr noundef nonnull %0, i32 noundef %1, i32 noundef 3) #8
  unreachable

13:                                               ; preds = %3
  %14 = load i64, ptr %9, align 8
  %15 = ashr i64 %14, 47
  %16 = icmp ult i64 %15, -13
  %17 = bitcast i64 %14 to double
  br i1 %16, label %70, label %18, !prof !56

18:                                               ; preds = %13
  switch i64 %15, label %12 [
    i64 -11, label %19
    i64 -5, label %66
  ]

19:                                               ; preds = %18
  %20 = getelementptr inbounds nuw i8, ptr %0, i64 16
  %21 = load i64, ptr %20, align 8, !tbaa !4
  %22 = inttoptr i64 %21 to ptr
  %23 = getelementptr inbounds nuw i8, ptr %22, i64 384
  %24 = load i64, ptr %23, align 8, !tbaa !14
  %25 = inttoptr i64 %24 to ptr
  %26 = getelementptr inbounds nuw i8, ptr %25, i64 16
  store ptr %0, ptr %26, align 8, !tbaa !25
  %27 = load i64, ptr %9, align 8, !tbaa !36
  %28 = and i64 %27, 140737488355327
  %29 = inttoptr i64 %28 to ptr
  %30 = getelementptr inbounds nuw i8, ptr %29, i64 16
  %31 = getelementptr inbounds nuw i8, ptr %29, i64 10
  %32 = load i16, ptr %31, align 2, !tbaa !36
  %33 = zext i16 %32 to i32
  %34 = load ptr, ptr %25, align 8, !tbaa !40
  %35 = zext i16 %32 to i64
  %36 = getelementptr inbounds nuw %struct.CType, ptr %34, i64 %35
  call void @llvm.lifetime.start.p0(i64 8, ptr nonnull %4) #7
  %37 = load i32, ptr %36, align 8, !tbaa !41
  %38 = and i32 %37, -260046848
  %39 = icmp eq i32 %38, 545259520
  br i1 %39, label %40, label %43

40:                                               ; preds = %19
  %41 = load ptr, ptr %30, align 8, !tbaa !47
  %42 = and i32 %37, 65535
  br label %43

43:                                               ; preds = %40, %19
  %.037 = phi ptr [ %41, %40 ], [ %30, %19 ]
  %.036 = phi i32 [ %42, %40 ], [ %33, %19 ]
  br label %44

44:                                               ; preds = %44, %43
  %.pn.in = phi i32 [ %.036, %43 ], [ %47, %44 ]
  %.pn = zext nneg i32 %.pn.in to i64
  %.0.i = getelementptr inbounds nuw %struct.CType, ptr %34, i64 %.pn
  %45 = load i32, ptr %.0.i, align 8, !tbaa !41
  %46 = icmp slt i32 %45, -1879048192
  %47 = and i32 %45, 65535
  br i1 %46, label %44, label %ctype_raw.exit, !llvm.loop !43

ctype_raw.exit:                                   ; preds = %44
  %.mask = and i32 %45, -268435456
  %48 = icmp eq i32 %.mask, 1342177280
  %49 = zext nneg i32 %47 to i64
  %50 = getelementptr inbounds nuw %struct.CType, ptr %34, i64 %49
  %.0 = select i1 %48, ptr %50, ptr %.0.i
  %51 = load i32, ptr %.0, align 8, !tbaa !41
  %52 = and i32 %51, -58720256
  %53 = icmp eq i32 %52, 8388608
  br i1 %53, label %54, label %58

54:                                               ; preds = %ctype_raw.exit
  %55 = getelementptr inbounds nuw i8, ptr %.0, i64 4
  %56 = load i32, ptr %55, align 4, !tbaa !45
  %57 = icmp eq i32 %56, 8
  br i1 %57, label %.sink.split, label %58

58:                                               ; preds = %54, %ctype_raw.exit
  %59 = load i32, ptr %2, align 4, !tbaa !46
  %.not42 = icmp eq i32 %59, 0
  br i1 %.not42, label %.sink.split, label %60

.sink.split:                                      ; preds = %58, %54
  %.sink = phi i32 [ 12, %54 ], [ 11, %58 ]
  store i32 %.sink, ptr %2, align 4, !tbaa !46
  br label %60

60:                                               ; preds = %.sink.split, %58
  %61 = phi i32 [ %59, %58 ], [ %.sink, %.sink.split ]
  %62 = zext i32 %61 to i64
  %63 = getelementptr inbounds nuw %struct.CType, ptr %34, i64 %62
  %64 = shl i32 %1, 8
  call void @lj_cconv_ct_ct(ptr noundef nonnull %25, ptr noundef nonnull %63, ptr noundef nonnull %.0, ptr noundef nonnull %4, ptr noundef %.037, i32 noundef %64) #7
  %65 = load i64, ptr %4, align 8, !tbaa !53
  call void @llvm.lifetime.end.p0(i64 8, ptr nonnull %4) #7
  br label %75

66:                                               ; preds = %18
  %67 = and i64 %14, 140737488355327
  %68 = inttoptr i64 %67 to ptr
  %69 = tail call i32 @lj_strscan_num(ptr noundef %68, ptr noundef nonnull %9) #7
  %.not41 = icmp eq i32 %69, 0
  br i1 %.not41, label %12, label %._crit_edge

._crit_edge:                                      ; preds = %66
  %.pre = load double, ptr %9, align 8, !tbaa !36
  br label %70

70:                                               ; preds = %._crit_edge, %13
  %71 = phi double [ %.pre, %._crit_edge ], [ %17, %13 ]
  %72 = fadd double %71, 0x4338000000000000
  %73 = bitcast double %72 to i64
  %74 = and i64 %73, 4294967295
  br label %75

75:                                               ; preds = %70, %60
  %.038 = phi i64 [ %74, %70 ], [ %65, %60 ]
  ret i64 %.038
}